Certificate:
    Data:
        Version: 3 (0x2)
        Serial Number:
            ad:d7:d3:d8:f0:9c:e3:e4
        Signature Algorithm: sha1WithRSAEncryption
        Issuer: C=KR, ST=KYUNG-GI, L=SUNG-NAM, O=HUMAX Co., CN=humaxdigital.com/emailAddress=info@humaxdigital.com
        Validity
            Not Before: Oct  1 07:12:55 2010 GMT
            Not After : Sep 28 07:12:55 2020 GMT
        Subject: C=KR, ST=KYUNG-GI, L=SUNG-NAM, O=HUMAX Co., CN=humaxdigital.com/emailAddress=info@humaxdigital.com
        Subject Public Key Info:
            Public Key Algorithm: rsaEncryption
            RSA Public Key: (1024 bit)
                Modulus (1024 bit):
                    00:d6:9e:1a:13:d6:98:d4:4d:85:e1:a0:60:d0:78:
                    d1:39:82:3b:a6:fc:73:f7:a0:1e:ad:ec:39:3d:b3:
                    a2:33:c3:3b:9f:cb:a8:1c:f4:6c:60:07:6c:93:e8:
                    1f:12:ea:c3:1a:cf:4b:2a:33:3d:37:bf:99:af:d5:
                    0b:81:6a:7c:24:b1:df:52:39:9e:61:60:3f:40:24:
                    6d:bf:02:a2:64:2c:e2:e4:c3:92:8f:2b:17:50:14:
                    d2:9c:4b:7e:83:e0:a2:93:d5:4b:d0:76:62:8a:4e:
                    3e:a0:fb:c8:36:01:af:9b:bb:9d:69:22:20:a6:8c:
                    a6:28:56:d0:72:1b:66:e5:97
                Exponent: 65537 (0x10001)
        X509v3 extensions:
            X509v3 Basic Constraints: 
                CA:TRUE
            X509v3 Subject Key Identifier: 
                FA:D1:A9:71:6D:71:C4:4B:6D:C0:FC:CF:17:56:08:BC:76:D2:3A:4A
            X509v3 Authority Key Identifier: 
                keyid:FA:D1:A9:71:6D:71:C4:4B:6D:C0:FC:CF:17:56:08:BC:76:D2:3A:4A
                DirName:/C=KR/ST=KYUNG-GI/L=SUNG-NAM/O=HUMAX Co./CN=humaxdigital.com/emailAddress=info@humaxdigital.com
                serial:AD:D7:D3:D8:F0:9C:E3:E4

    Signature Algorithm: sha1WithRSAEncryption
        cf:9a:99:f6:e9:ed:04:a6:31:31:b3:11:de:9e:37:1d:9a:ec:
        f8:af:b4:d6:53:27:4b:60:fb:45:77:0f:32:b4:14:52:1d:e5:
        64:13:b7:3a:48:82:3b:ce:df:d6:ef:cb:46:b2:c5:8d:09:6a:
        b7:59:05:8f:5d:6e:ca:7e:33:4a:32:05:38:30:a5:1f:c2:25:
        50:44:62:5e:a6:7a:60:52:4d:87:60:bf:01:ff:46:78:f2:f9:
        ac:81:72:70:ec:64:c1:8d:56:27:07:74:b8:bd:d9:80:64:7f:
        1f:4d:c8:b8:1c:71:ab:16:6c:c2:fa:c9:15:dc:51:a6:7d:3b:
        60:f1
-----BEGIN CERTIFICATE-----
MIIDgTCCAuqgAwIBAgIJAK3X09jwnOPkMA0GCSqGSIb3DQEBBQUAMIGIMQswCQYD
VQQGEwJLUjERMA8GA1UECBMIS1lVTkctR0kxETAPBgNVBAcTCFNVTkctTkFNMRIw
EAYDVQQKEwlIVU1BWCBDby4xGTAXBgNVBAMTEGh1bWF4ZGlnaXRhbC5jb20xJDAi
BgkqhkiG9w0BCQEWFWluZm9AaHVtYXhkaWdpdGFsLmNvbTAeFw0xMDEwMDEwNzEy
NTVaFw0yMDA5MjgwNzEyNTVaMIGIMQswCQYDVQQGEwJLUjERMA8GA1UECBMIS1lV
TkctR0kxETAPBgNVBAcTCFNVTkctTkFNMRIwEAYDVQQKEwlIVU1BWCBDby4xGTAX
BgNVBAMTEGh1bWF4ZGlnaXRhbC5jb20xJDAiBgkqhkiG9w0BCQEWFWluZm9AaHVt
YXhkaWdpdGFsLmNvbTCBnzANBgkqhkiG9w0BAQEFAAOBjQAwgYkCgYEA1p4aE9aY
1E2F4aBg0HjROYI7pvxz96Aerew5PbOiM8M7n8uoHPRsYAdsk+gfEurDGs9LKjM9
N7+Zr9ULgWp8JLHfUjmeYWA/QCRtvwKiZCzi5MOSjysXUBTSnEt+g+Cik9VL0HZi
ik4+oPvINgGvm7udaSIgpoymKFbQchtm5ZcCAwEAAaOB8DCB7TAMBgNVHRMEBTAD
AQH/MB0GA1UdDgQWBBT60alxbXHES23A/M8XVgi8dtI6SjCBvQYDVR0jBIG1MIGy
gBT60alxbXHES23A/M8XVgi8dtI6SqGBjqSBizCBiDELMAkGA1UEBhMCS1IxETAP
BgNVBAgTCEtZVU5HLUdJMREwDwYDVQQHEwhTVU5HLU5BTTESMBAGA1UEChMJSFVN
QVggQ28uMRkwFwYDVQQDExBodW1heGRpZ2l0YWwuY29tMSQwIgYJKoZIhvcNAQkB
FhVpbmZvQGh1bWF4ZGlnaXRhbC5jb22CCQCt19PY8Jzj5DANBgkqhkiG9w0BAQUF
AAOBgQDPmpn26e0EpjExsxHenjcdmuz4r7TWUydLYPtFdw8ytBRSHeVkE7c6SII7
zt/W78tGssWNCWq3WQWPXW7KfjNKMgU4MKUfwiVQRGJepnpgUk2HYL8B/0Z48vms
gXJw7GTBjVYnB3S4vdmAZH8fTci4HHGrFmzC+skV3FGmfTtg8Q==
-----END CERTIFICATE-----
