Certificate:
    Data:
        Version: 3 (0x2)
        Serial Number: 1 (0x1)
        Signature Algorithm: sha1WithRSAEncryption
        Issuer: C=GB, ST=UK, O=Freesat UK Limited, O=freetime, OU=G2 - Production, CN=humax.prod.rec.freesat.tv FMP CA/emailAddress=platformops@freesat.co.uk
        Validity
            Not Before: Aug  1 22:05:39 2012 GMT
            Not After : Jul 27 22:05:39 2032 GMT
        Subject: C=GB, ST=UK, O=Freesat UK Limited, OU=G2 - Production, CN=FS-HMX-01A.humax.prod.rec.freesat.tv/emailAddress=platformops@freesat.co.uk
        Subject Public Key Info:
            Public Key Algorithm: rsaEncryption
            RSA Public Key: (4096 bit)
                Modulus (4096 bit):
                    00:db:db:d6:71:a6:7d:75:32:f7:58:74:c9:2a:ec:
                    0f:83:78:e3:d4:20:f4:9b:a1:c0:96:07:84:10:03:
                    db:4b:4a:57:2a:45:06:dd:26:21:01:42:80:16:2e:
                    78:c9:34:ca:f4:1d:6c:9d:74:72:40:f0:8c:42:43:
                    dc:20:78:18:80:46:92:0f:68:42:ee:54:c9:c2:2c:
                    57:e0:bc:fa:40:0f:94:5a:97:85:51:06:1f:5b:8d:
                    dc:28:d8:c5:60:b9:c0:cc:6e:8d:da:b4:72:2a:19:
                    aa:b0:44:ce:a3:14:95:de:23:d4:18:f3:a6:72:58:
                    13:c0:cf:f2:7e:fd:cd:aa:33:b9:ae:ad:76:9d:20:
                    b3:c9:41:48:db:04:e0:4a:33:7e:bc:33:c5:67:c0:
                    d6:2a:2a:4e:5e:fe:87:04:8d:30:d1:1d:56:70:e5:
                    e4:77:35:59:db:2e:f9:c0:0a:db:b0:79:79:96:52:
                    ba:e7:fb:8f:c3:12:65:a1:d2:46:56:a4:a9:51:aa:
                    83:5f:c8:da:de:8b:22:2b:e0:8e:f1:6b:0f:d4:e5:
                    70:09:e1:cc:f6:aa:c1:48:ef:81:39:a6:08:58:08:
                    4e:a3:fd:16:bd:dc:fd:84:0f:4f:b2:30:4f:26:87:
                    56:c0:26:89:6d:7f:8d:62:a8:04:ba:98:a0:2d:ba:
                    e1:2e:36:c8:0c:dc:29:0a:64:de:b7:b9:bd:d8:0a:
                    4e:2d:7d:33:ed:a2:fb:cf:3e:3d:62:f4:72:87:be:
                    1a:70:71:37:1f:32:8e:f7:9b:54:02:98:cd:9a:a6:
                    e5:ae:7f:d2:d2:cd:38:ba:72:b7:78:a2:a5:05:40:
                    b7:db:65:86:d8:ef:fc:a4:30:00:e4:44:70:06:ca:
                    8d:cb:b7:84:7b:8b:76:f2:e8:82:58:a9:3e:59:5c:
                    05:3c:d2:b7:75:cf:c5:45:d2:0a:39:4a:af:31:80:
                    15:e9:17:cf:3b:68:1b:0c:96:3f:ae:94:d4:04:22:
                    83:8f:36:ce:a9:b5:a8:83:bd:3e:4a:70:f2:ba:23:
                    3e:0c:ca:bd:ef:a4:f0:04:29:38:67:5b:5a:ba:91:
                    a6:47:89:eb:44:0c:95:4a:89:39:d7:65:c1:8b:7d:
                    eb:5e:8d:eb:fd:50:15:9e:ac:17:23:24:e4:e2:74:
                    e7:10:da:80:0a:c8:92:8b:e5:e7:2a:23:42:93:b7:
                    12:cf:85:60:41:1f:68:a7:c6:70:7e:43:6f:69:6c:
                    87:87:97:1d:c5:35:c5:08:15:5f:46:fb:42:ec:21:
                    2a:9f:a6:1d:38:02:c2:2e:1e:7f:cc:84:28:ac:57:
                    92:d7:55:d8:00:c5:5c:d4:64:f8:8d:84:4d:a8:e2:
                    0c:d8:2d
                Exponent: 65537 (0x10001)
        X509v3 extensions:
            X509v3 Subject Key Identifier: 
                29:E9:BB:04:34:28:EA:F1:57:BE:AD:E5:CF:EF:9C:7B:48:66:CD:F0
            X509v3 Authority Key Identifier: 
                keyid:B5:1C:A5:2B:4E:78:9B:03:EA:E3:50:37:1C:F3:E6:D0:62:CF:5D:2D

            X509v3 Basic Constraints: 
                CA:FALSE
            Netscape Cert Type: 
                SSL Client, SSL Server
            X509v3 Key Usage: 
                Digital Signature, Non Repudiation, Key Encipherment, Data Encipherment, Key Agreement
            X509v3 Extended Key Usage: 
                TLS Web Client Authentication, TLS Web Server Authentication, Netscape Server Gated Crypto, Microsoft Server Gated Crypto
            Netscape Comment: 
                Freesat RECEIVER Generated Certificate
            Netscape CA Revocation Url: 
                https://auth.platform.freesat.tv/crl/humax_prod_FMPCA.pem
    Signature Algorithm: sha1WithRSAEncryption
        2c:31:e2:d5:2b:f3:8b:21:ee:df:ed:5d:ff:f9:ad:9d:59:49:
        ad:77:90:8c:bd:d3:d6:e6:df:c6:27:b0:f9:b9:71:cf:43:cf:
        8d:dd:32:90:fe:f4:04:5c:4b:91:e3:a8:ab:62:d0:5d:b7:5f:
        1e:46:13:4f:ee:91:89:7b:d0:b2:b4:9e:73:13:53:fd:70:7c:
        3f:7d:ce:59:a5:83:9e:7e:67:31:93:a1:bb:ba:ec:0c:fa:02:
        7f:e7:44:56:1e:d8:6c:2b:e0:86:90:a8:c4:fe:73:d5:f8:6c:
        6a:4b:a1:b2:42:28:18:9a:ee:37:17:d4:3b:08:df:1e:60:79:
        21:ac:4e:c2:fd:56:6d:f7:87:7f:0c:ab:19:a1:3d:78:4a:7a:
        d7:40:f7:b9:25:9a:ad:76:3e:f9:7b:3e:73:b4:88:45:d1:c8:
        20:c8:62:68:9c:8a:ae:8c:0b:68:21:a5:1d:3c:bf:e9:29:dd:
        0a:6f:24:72:5f:c4:ac:62:9c:21:2a:d1:36:ed:97:be:56:04:
        78:54:70:ad:76:4e:a6:8c:c4:06:11:6b:d2:0f:d5:49:9b:06:
        be:e3:83:b7:46:6a:28:f0:3d:bd:e7:4b:88:77:5b:21:2d:64:
        d2:8e:26:32:6e:b2:ad:4c:f9:89:a5:bf:13:33:c1:cf:2b:d2:
        7a:82:8b:95:f6:94:42:26:6d:ee:84:01:0b:05:00:e8:d4:27:
        2c:4d:d0:b5:b5:6c:8c:bf:aa:11:fb:b3:6c:0f:f6:cf:86:5e:
        a2:33:af:89:8c:22:08:9a:22:d6:06:77:36:21:fc:f5:7f:5f:
        22:09:10:95:b1:11:5a:4f:06:f1:fb:d5:43:7e:d3:43:3b:12:
        d6:2c:0c:7b:f5:a0:a1:eb:6c:82:43:b4:8f:c8:b2:62:3d:1c:
        8a:66:27:5a:6b:12:ff:f2:30:bb:c2:f0:b5:e1:e7:6d:f9:13:
        97:e7:d1:95:6d:82:67:e1:f8:21:c2:ed:8a:32:30:a2:3b:65:
        c4:75:bf:ea:a9:cc:3a:5f:21:33:46:aa:73:24:d4:0f:49:b3:
        a0:3d:b6:d8:f1:59:55:50:41:48:62:27:4d:60:f0:75:dd:a1:
        be:8c:2b:a9:5f:00:54:05:fa:06:1c:24:3c:3f:8a:f7:5f:bb:
        e0:78:3d:0c:76:90:10:3c:4b:e2:5b:36:82:08:ee:49:2b:0d:
        4e:d2:8d:54:8e:7a:08:0c:f1:ff:ae:e6:a8:ad:6c:ef:30:f4:
        94:f6:82:b5:3f:09:7e:b8:97:f5:82:cd:82:2c:2a:6a:5b:07:
        f1:85:24:b6:17:13:76:f8:a6:51:47:33:47:34:93:7d:8b:37:
        4d:07:45:5f:c5:5d:b9:94
-----BEGIN CERTIFICATE-----
MIIHCDCCBPCgAwIBAgIBATANBgkqhkiG9w0BAQUFADCBuTELMAkGA1UEBhMCR0Ix
CzAJBgNVBAgTAlVLMRswGQYDVQQKExJGcmVlc2F0IFVLIExpbWl0ZWQxETAPBgNV
BAoTCGZyZWV0aW1lMRgwFgYDVQQLEw9HMiAtIFByb2R1Y3Rpb24xKTAnBgNVBAMT
IGh1bWF4LnByb2QucmVjLmZyZWVzYXQudHYgRk1QIENBMSgwJgYJKoZIhvcNAQkB
FhlwbGF0Zm9ybW9wc0BmcmVlc2F0LmNvLnVrMB4XDTEyMDgwMTIyMDUzOVoXDTMy
MDcyNzIyMDUzOVowgaoxCzAJBgNVBAYTAkdCMQswCQYDVQQIEwJVSzEbMBkGA1UE
ChMSRnJlZXNhdCBVSyBMaW1pdGVkMRgwFgYDVQQLEw9HMiAtIFByb2R1Y3Rpb24x
LTArBgNVBAMTJEZTLUhNWC0wMUEuaHVtYXgucHJvZC5yZWMuZnJlZXNhdC50djEo
MCYGCSqGSIb3DQEJARYZcGxhdGZvcm1vcHNAZnJlZXNhdC5jby51azCCAiIwDQYJ
KoZIhvcNAQEBBQADggIPADCCAgoCggIBANvb1nGmfXUy91h0ySrsD4N449Qg9Juh
wJYHhBAD20tKVypFBt0mIQFCgBYueMk0yvQdbJ10ckDwjEJD3CB4GIBGkg9oQu5U
ycIsV+C8+kAPlFqXhVEGH1uN3CjYxWC5wMxujdq0cioZqrBEzqMUld4j1BjzpnJY
E8DP8n79zaozua6tdp0gs8lBSNsE4EozfrwzxWfA1ioqTl7+hwSNMNEdVnDl5Hc1
Wdsu+cAK27B5eZZSuuf7j8MSZaHSRlakqVGqg1/I2t6LIivgjvFrD9TlcAnhzPaq
wUjvgTmmCFgITqP9Fr3c/YQPT7IwTyaHVsAmiW1/jWKoBLqYoC264S42yAzcKQpk
3re5vdgKTi19M+2i+88+PWL0coe+GnBxNx8yjvebVAKYzZqm5a5/0tLNOLpyt3ii
pQVAt9tlhtjv/KQwAOREcAbKjcu3hHuLdvLoglipPllcBTzSt3XPxUXSCjlKrzGA
FekXzztoGwyWP66U1AQig482zqm1qIO9Pkpw8rojPgzKve+k8AQpOGdbWrqRpkeJ
60QMlUqJOddlwYt9616N6/1QFZ6sFyMk5OJ05xDagArIkovl5yojQpO3Es+FYEEf
aKfGcH5Db2lsh4eXHcU1xQgVX0b7QuwhKp+mHTgCwi4ef8yEKKxXktdV2ADFXNRk
+I2ETajiDNgtAgMBAAGjggEmMIIBIjAdBgNVHQ4EFgQUKem7BDQo6vFXvq3lz++c
e0hmzfAwHwYDVR0jBBgwFoAUtRylK054mwPq41A3HPPm0GLPXS0wCQYDVR0TBAIw
ADARBglghkgBhvhCAQEEBAMCBsAwCwYDVR0PBAQDAgP4MDQGA1UdJQQtMCsGCCsG
AQUFBwMCBggrBgEFBQcDAQYJYIZIAYb4QgQBBgorBgEEAYI3CgMDMDUGCWCGSAGG
+EIBDQQoFiZGcmVlc2F0IFJFQ0VJVkVSIEdlbmVyYXRlZCBDZXJ0aWZpY2F0ZTBI
BglghkgBhvhCAQQEOxY5aHR0cHM6Ly9hdXRoLnBsYXRmb3JtLmZyZWVzYXQudHYv
Y3JsL2h1bWF4X3Byb2RfRk1QQ0EucGVtMA0GCSqGSIb3DQEBBQUAA4ICAQAsMeLV
K/OLIe7f7V3/+a2dWUmtd5CMvdPW5t/GJ7D5uXHPQ8+N3TKQ/vQEXEuR46irYtBd
t18eRhNP7pGJe9CytJ5zE1P9cHw/fc5ZpYOefmcxk6G7uuwM+gJ/50RWHthsK+CG
kKjE/nPV+GxqS6GyQigYmu43F9Q7CN8eYHkhrE7C/VZt94d/DKsZoT14SnrXQPe5
JZqtdj75ez5ztIhF0cggyGJonIqujAtoIaUdPL/pKd0KbyRyX8SsYpwhKtE27Ze+
VgR4VHCtdk6mjMQGEWvSD9VJmwa+44O3Rmoo8D2950uId1shLWTSjiYybrKtTPmJ
pb8TM8HPK9J6gouV9pRCJm3uhAELBQDo1CcsTdC1tWyMv6oR+7NsD/bPhl6iM6+J
jCIImiLWBnc2Ifz1f18iCRCVsRFaTwbx+9VDftNDOxLWLAx79aCh62yCQ7SPyLJi
PRyKZidaaxL/8jC7wvC14edt+ROX59GVbYJn4fghwu2KMjCiO2XEdb/qqcw6XyEz
RqpzJNQPSbOgPbbY8VlVUEFIYidNYPB13aG+jCupXwBUBfoGHCQ8P4r3X7vgeD0M
dpAQPEviWzaCCO5JKw1O0o1UjnoIDPH/ruaorWzvMPSU9oK1Pwl+uJf1gs2CLCpq
WwfxhSS2FxN2+KZRRzNHNJN9izdNB0VfxV25lA==
-----END CERTIFICATE-----
