Certificate:
    Data:
        Version: 3 (0x2)
        Serial Number:
            90:52:32:ec:3f:73:e0:08
    Signature Algorithm: sha256WithRSAEncryption
        Issuer: O=HUMAX Co., CN=humaxdigital.com/Freeview
        Validity
            Not Before: Dec  4 08:41:05 2014 GMT
            Not After : Dec 31 08:41:05 2044 GMT
        Subject: O=Humax, CN=hdr4000t
        Subject Public Key Info:
            Public Key Algorithm: rsaEncryption
                Public-Key: (2048 bit)
                Modulus:
                    00:c1:c9:55:66:d2:c9:d6:63:27:ef:dc:d7:5b:ba:
                    b4:b9:83:86:68:82:a0:28:58:68:48:02:0b:aa:4d:
                    9a:0f:97:68:51:04:33:7d:72:16:cb:05:2e:26:1c:
                    f7:f2:94:e0:c2:cc:38:df:cd:dd:4f:68:e5:34:ba:
                    05:c9:96:a5:5d:68:7b:57:3b:b9:f7:c5:10:33:42:
                    c3:f5:a6:75:07:85:9d:3d:01:3c:7b:87:8e:e1:fe:
                    48:b3:02:6b:c9:d5:03:9f:26:2d:2f:40:dd:e1:66:
                    66:d9:c1:6a:80:44:e7:05:e2:af:ef:b2:8c:c7:77:
                    cd:48:0d:0d:ea:d2:ff:53:1a:24:0c:82:8f:f2:30:
                    8f:a3:08:f2:b6:53:87:98:6e:77:8f:6a:02:b1:87:
                    1d:92:cd:af:fc:70:7f:88:b3:98:c2:25:83:4e:28:
                    fa:4e:30:c1:f4:cd:12:e9:16:7b:26:eb:05:6e:e2:
                    3f:02:d2:13:eb:42:fd:df:f1:a3:27:77:84:c7:50:
                    d7:c9:05:e9:7b:a3:c3:58:f6:ef:34:c8:f6:ef:ac:
                    e6:d7:9e:3d:a7:3a:5d:76:5a:4f:34:c4:0a:0b:e2:
                    43:e3:99:a6:9c:fa:5e:f2:b9:c3:5f:b8:84:3f:3e:
                    54:10:0d:e9:b9:3a:55:83:65:61:d1:c6:fa:85:d4:
                    08:35
                Exponent: 65537 (0x10001)
        X509v3 extensions:
            X509v3 Basic Constraints: 
                CA:FALSE
            X509v3 Extended Key Usage: critical
                TLS Web Client Authentication
    Signature Algorithm: sha256WithRSAEncryption
         08:6e:56:4b:35:5f:1c:df:40:98:77:ae:ca:45:1e:3a:15:6f:
         79:cb:7c:1a:0d:f9:e5:5d:12:8a:79:07:b6:7c:a3:b0:c7:db:
         d4:b7:d2:bd:df:92:e3:05:00:b9:3c:ac:0c:27:70:98:2b:35:
         47:04:ff:2c:cc:8a:65:60:df:a6:4e:93:ad:68:da:4c:dc:21:
         6f:58:73:87:07:63:34:43:c2:16:5a:74:2a:3a:e4:2b:a7:23:
         5f:ef:a7:7d:f5:27:ba:82:1f:23:70:37:59:cd:a2:f7:9a:5d:
         9a:57:0a:4c:cc:18:ee:40:97:01:df:64:25:e0:9c:e3:9c:11:
         2a:65:5d:00:f9:fa:d2:b4:63:12:a6:7f:5b:9c:c8:8a:fe:73:
         b6:2b:9f:7f:3b:86:7a:82:b0:74:af:41:d4:7a:2e:1e:1c:4c:
         aa:37:39:81:b2:42:45:a1:c8:bb:61:80:9f:3d:e3:eb:76:60:
         eb:65:4e:92:33:9d:9a:54:f2:53:82:ea:b0:b6:19:4a:88:0a:
         d7:0c:2a:99:4c:cc:fb:5c:1a:b6:9d:f5:00:72:21:17:ca:1d:
         a8:d6:65:3a:50:9d:14:28:c2:e7:62:e6:b9:aa:89:2b:cd:28:
         77:bf:98:7f:14:d8:ca:4a:23:fe:0d:28:7f:6f:ff:9b:c1:d0:
         e1:51:a6:35
-----BEGIN CERTIFICATE-----
MIIDAzCCAeugAwIBAgIJAJBSMuw/c+AIMA0GCSqGSIb3DQEBCwUAMDgxEjAQBgNV
BAoTCUhVTUFYIENvLjEiMCAGA1UEAxMZaHVtYXhkaWdpdGFsLmNvbS9GcmVldmll
dzAeFw0xNDEyMDQwODQxMDVaFw00NDEyMzEwODQxMDVaMCMxDjAMBgNVBAoTBUh1
bWF4MREwDwYDVQQDEwhoZHI0MDAwdDCCASIwDQYJKoZIhvcNAQEBBQADggEPADCC
AQoCggEBAMHJVWbSydZjJ+/c11u6tLmDhmiCoChYaEgCC6pNmg+XaFEEM31yFssF
LiYc9/KU4MLMON/N3U9o5TS6BcmWpV1oe1c7uffFEDNCw/WmdQeFnT0BPHuHjuH+
SLMCa8nVA58mLS9A3eFmZtnBaoBE5wXir++yjMd3zUgNDerS/1MaJAyCj/Iwj6MI
8rZTh5hud49qArGHHZLNr/xwf4izmMIlg04o+k4wwfTNEukWeybrBW7iPwLSE+tC
/d/xoyd3hMdQ18kF6Xujw1j27zTI9u+s5teePac6XXZaTzTECgviQ+OZppz6XvK5
w1+4hD8+VBAN6bk6VYNlYdHG+oXUCDUCAwEAAaMlMCMwCQYDVR0TBAIwADAWBgNV
HSUBAf8EDDAKBggrBgEFBQcDAjANBgkqhkiG9w0BAQsFAAOCAQEACG5WSzVfHN9A
mHeuykUeOhVvect8Gg355V0SinkHtnyjsMfb1LfSvd+S4wUAuTysDCdwmCs1RwT/
LMyKZWDfpk6TrWjaTNwhb1hzhwdjNEPCFlp0KjrkK6cjX++nffUnuoIfI3A3Wc2i
95pdmlcKTMwY7kCXAd9kJeCc45wRKmVdAPn60rRjEqZ/W5zIiv5ztiuffzuGeoKw
dK9B1HouHhxMqjc5gbJCRaHIu2GAnz3j63Zg62VOkjOdmlTyU4LqsLYZSogK1wwq
mUzM+1watp31AHIhF8odqNZlOlCdFCjC52LmuaqJK80od7+YfxTYykoj/g0of2//
m8HQ4VGmNQ==
-----END CERTIFICATE-----
