-----BEGIN CERTIFICATE-----
MIIHTjCCBTagAwIBAgIJALp8/4BDHqIiMA0GCSqGSIb3DQEBBQUAMIHKMQswCQYD
VQQGEwJHQjELMAkGA1UECBMCVUsxDzANBgNVBAcTBkxvbmRvbjEbMBkGA1UEChMS
RnJlZXNhdCBVSyBMaW1pdGVkMREwDwYDVQQKEwhmcmVldGltZTEYMBYGA1UECxMP
RzIgLSBQcm9kdWN0aW9uMSkwJwYDVQQDEyBwcm9kdWN0aW9uLmZyZWVzYXQudHYg
U0VSVkVSUyBDQTEoMCYGCSqGSIb3DQEJARYZcGxhdGZvcm1vcHNAZnJlZXNhdC5j
by51azAeFw0xMjA4MDQwNjQ5NDNaFw0zMjA3MzAwNjQ5NDNaMIHKMQswCQYDVQQG
EwJHQjELMAkGA1UECBMCVUsxDzANBgNVBAcTBkxvbmRvbjEbMBkGA1UEChMSRnJl
ZXNhdCBVSyBMaW1pdGVkMREwDwYDVQQKEwhmcmVldGltZTEYMBYGA1UECxMPRzIg
LSBQcm9kdWN0aW9uMSkwJwYDVQQDEyBwcm9kdWN0aW9uLmZyZWVzYXQudHYgU0VS
VkVSUyBDQTEoMCYGCSqGSIb3DQEJARYZcGxhdGZvcm1vcHNAZnJlZXNhdC5jby51
azCCAiIwDQYJKoZIhvcNAQEBBQADggIPADCCAgoCggIBALNHZxxiwrU+Cnhf/Nm0
MG+NDT0l3QyVnYOtZlJgRHIroKqAutWqzX+STbn13lJST039R+IvFe40cmQSs6aR
qWg2IGrv4MwbFGJOqqhvATJOvdCthYKPyavcnuyXBGypTGMM7G1IZEjpeXFY6aRl
f/Je1c5sr9AtO4HglMw41PTZTBHSYBzlj1Vztax8GODLTqCSWFTeH46EuAc/631/
XVfMjVxKQbwPueugLX/C+G6YSzNECGsK4f/WwO48A/OgCFa7yZfSwYe9t56Jto+6
8t7T2q+Q9Mgq5AKmhqviTgghahlXX3PLfB3WT36+1rcw1CpErVZUYNWU8r4og7mh
sv7QF7NFGZ/K4Vxgm86aN0H+XhvViw0ee1XUgBvmq5qqnjQ/2/ECtXd70vjcBbHj
tiQF/PyL+kRr0DiIZZ4cD/aDW/eQqfJHbg8SsDp80LQAMZNn/cR4tU9rLgWQbm0M
OsrgJ7XsNtXMYg01E1svOpxr3FS2l3GYqCl0IRFKokCQvYrW/TNZd+KittOXbUDB
s7JqLpErAv9f87Gt5CZWT7z5ZfuSo2fA2MrIbiK3VCjRNjbw2Y/IayPZm4Gx5G1W
+wlmhONt3p/3aWKp3XCfsx0FyAkYwBAoLXZZ06UQFvlG7fvNXChL3LBHrC+bNmyg
fx/xuga/OYfUT0iGTln4QgYFAgMBAAGjggEzMIIBLzAdBgNVHQ4EFgQUV7TlNodf
Pg26Al6fCTpVP6tN26Awgf8GA1UdIwSB9zCB9IAUV7TlNodfPg26Al6fCTpVP6tN
26ChgdCkgc0wgcoxCzAJBgNVBAYTAkdCMQswCQYDVQQIEwJVSzEPMA0GA1UEBxMG
TG9uZG9uMRswGQYDVQQKExJGcmVlc2F0IFVLIExpbWl0ZWQxETAPBgNVBAoTCGZy
ZWV0aW1lMRgwFgYDVQQLEw9HMiAtIFByb2R1Y3Rpb24xKTAnBgNVBAMTIHByb2R1
Y3Rpb24uZnJlZXNhdC50diBTRVJWRVJTIENBMSgwJgYJKoZIhvcNAQkBFhlwbGF0
Zm9ybW9wc0BmcmVlc2F0LmNvLnVrggkAunz/gEMeoiIwDAYDVR0TBAUwAwEB/zAN
BgkqhkiG9w0BAQUFAAOCAgEANfllY8ok3zR3gQWlJwIiyGjFKJttyCO42kSExP1S
OAi3T/I6rZ3zYIn3M3hrpArQodEoUbPxG5kO1W1jATT0rtRWhDvKYbbzHAbpIjaf
Pcc3+ThxvM5ywMdcDVQP8rtBqk3rymgHejsoNv/Yo4bM9mDN0fGeAh++0c98+NGr
AjoPOSfJPm3mfkLwkuz/jwHrRASlU4cWdhNBAaq+YL8SGMjggCixXY1731CNJRDW
nEol/g3R+b19i9Fr08JsGGwsm7YpiI1VSbGd+jZj83uSUgyawRxyNz/ojWq/Qr97
12F8KpVJmLC2x3QcnOpCkkD7ms7c5msmiOMxIVtwXtLuGTiEihX24Pa/Dr3DQuIx
leTfmpMpVBRUJACHLL3bHhHcfGcVRr/umuRDLYSUzxKlnk4RsTKFtgFHQU58BSjX
tMY7OVaN/sE2cD93YkRzYHsrR6de6BtSt52IuYPunmVmrQxivfl/MYslFhSOvyli
LP7N0aYpP6otqLoH/2qDT9ytNcMGMQ6zxEnLCz0NpQAQNaCR303z4qxmpB9rqQ+H
JJJEpgamuxA4qCX468tQb9x3tlddXhsb7DBBM15bbtb1CQ2zGsYwCgxwDDKAuizb
jOTlWu7cboUbk+Oc3i7TJ5fYF0v/MPgAFzN5YVG//VzDpvT6P1yYFk8UrkgFHH3s
idY=
-----END CERTIFICATE-----
Certificate:
    Data:
        Version: 3 (0x2)
        Serial Number: 1 (0x1)
        Signature Algorithm: sha1WithRSAEncryption
        Issuer: C=GB, ST=UK, L=London, O=Freesat UK Limited, O=freetime, OU=G2 - Production, CN=production.freesat.tv SERVERS CA/emailAddress=platformops@freesat.co.uk
        Validity
            Not Before: Aug  4 06:54:27 2012 GMT
            Not After : Aug  1 06:54:27 2027 GMT
        Subject: C=GB, ST=UK, O=Freesat UK Limited, O=freetime, OU=G2 - Production, CN=production.freesat.tv SERVERS CA/emailAddress=platformops@freesat.co.uk
        Subject Public Key Info:
            Public Key Algorithm: rsaEncryption
            RSA Public Key: (4096 bit)
                Modulus (4096 bit):
                    00:c2:f1:2f:54:f6:67:ec:75:f9:eb:59:4c:75:0b:
                    4d:6e:44:c8:df:d8:de:81:ba:54:6b:93:f9:95:2e:
                    56:d8:1d:ee:03:60:22:51:46:17:27:eb:52:c5:56:
                    47:d9:51:fe:55:b4:02:e6:cc:c0:cb:76:57:b8:d1:
                    1c:5b:eb:6f:ee:10:36:88:61:32:34:bf:13:65:d8:
                    40:c8:23:d8:7e:46:95:05:23:73:26:25:83:96:8f:
                    10:33:3f:f0:73:55:f4:4c:43:df:7d:e1:01:96:a9:
                    b2:dd:58:79:ac:2a:0b:8a:1b:22:e6:3a:af:cf:ea:
                    74:5e:ba:97:48:ba:70:ae:4d:73:26:2d:cd:39:c0:
                    31:29:b3:9b:09:06:b9:6f:a0:ad:49:34:c2:1d:41:
                    c5:a3:b0:18:c1:38:43:e1:52:b1:e8:f9:ca:69:42:
                    40:b1:ed:ec:b5:1f:09:aa:6e:80:5b:00:3e:39:05:
                    1e:7b:21:6c:2e:07:95:66:11:b4:8c:1a:a6:4d:4a:
                    7f:c1:a6:6e:25:37:af:c3:7a:e6:8a:aa:c0:50:f8:
                    ad:61:8d:f9:32:b0:4d:ee:1b:7a:d1:29:32:58:9c:
                    9f:72:30:84:f5:20:42:cf:70:37:82:23:30:01:a6:
                    aa:00:c4:5b:70:55:e5:c0:ed:97:ba:6f:6a:e5:c1:
                    11:1b:4f:1a:58:eb:e7:8c:c1:1c:e9:00:65:d0:92:
                    af:5e:fe:3c:89:03:27:22:ea:fd:22:5e:69:90:e4:
                    1e:a1:ac:4d:03:59:39:b8:54:04:da:12:0c:54:35:
                    d3:8b:6a:ff:93:bd:cb:04:7b:2a:f5:b2:f4:69:c3:
                    6d:27:eb:22:b7:72:23:c4:8b:23:ad:1e:a2:71:08:
                    be:6d:49:e6:db:c7:21:91:49:76:97:0b:bc:25:d3:
                    8d:ef:6b:66:52:aa:dd:b5:06:40:ca:04:d3:f5:27:
                    74:39:51:40:08:ff:8d:e7:f5:95:32:18:c3:6c:de:
                    c1:d9:77:b1:51:6c:fe:ce:d7:68:51:12:85:b0:c0:
                    7a:2c:e2:bb:ad:65:d5:2d:03:f6:47:08:5e:09:f3:
                    0a:74:e8:de:35:aa:1b:71:60:c2:c8:99:c7:5b:ea:
                    91:de:c1:76:98:27:5c:74:c7:95:23:20:8a:fd:37:
                    a2:b3:a4:dd:2c:e5:03:79:47:11:79:89:35:64:ef:
                    50:58:82:e6:e6:48:22:fa:6e:8d:1e:22:5d:d3:25:
                    a9:67:a6:0f:cb:58:cd:f7:aa:44:46:52:ad:a4:0d:
                    c7:e4:8e:0a:55:42:d7:89:60:78:32:0a:96:48:33:
                    8c:63:a3:d7:ab:76:65:83:a0:b3:49:58:a4:0f:9e:
                    dc:ba:b1
                Exponent: 65537 (0x10001)
        X509v3 extensions:
            X509v3 Subject Key Identifier: 
                C1:0D:2F:A0:B0:B1:5D:AB:39:BF:48:77:E1:E5:A4:5E:BC:22:1F:73
            X509v3 Authority Key Identifier: 
                keyid:57:B4:E5:36:87:5F:3E:0D:BA:02:5E:9F:09:3A:55:3F:AB:4D:DB:A0
                DirName:/C=GB/ST=UK/L=London/O=Freesat UK Limited/O=freetime/OU=G2 - Production/CN=production.freesat.tv SERVERS CA/emailAddress=platformops@freesat.co.uk
                serial:BA:7C:FF:80:43:1E:A2:22

            X509v3 Basic Constraints: 
                CA:TRUE
    Signature Algorithm: sha1WithRSAEncryption
        93:41:16:80:78:0f:32:de:df:51:c1:3b:d7:7c:df:64:02:9a:
        96:8a:8f:59:cc:02:d1:17:e0:2d:ee:c8:43:74:9d:ba:f9:79:
        3a:bf:b8:ca:a1:72:8f:df:f2:0d:07:e3:de:79:46:4f:d5:15:
        29:3d:89:0d:3e:e6:7e:04:c9:4b:a2:54:9b:37:a6:48:92:fc:
        79:74:bd:95:e2:17:f8:32:8c:5c:b9:3b:b5:64:66:bf:58:15:
        38:e1:5c:d3:63:26:ea:ee:06:4c:e0:41:f0:2c:bc:b2:8a:56:
        ae:d6:04:2f:1f:1e:e1:35:0c:cd:87:e4:66:ab:50:43:cd:d1:
        68:b2:9c:2c:28:06:d4:bc:a6:fe:0f:a3:cf:d1:8b:57:4f:f0:
        32:42:af:36:b4:7e:2f:bc:7f:57:06:32:c6:53:23:45:37:ec:
        d4:f2:87:ad:9c:87:5d:c0:31:47:2a:4a:fb:6b:a7:27:83:c4:
        a2:37:0e:ca:2f:c0:11:b7:74:48:5b:cd:55:c6:c9:30:66:61:
        a6:ea:5e:0d:74:f1:a4:4e:04:18:d8:e7:17:0c:19:a2:74:42:
        ac:f2:f5:35:fe:41:22:a5:8b:1a:86:1a:18:8c:7a:90:a3:dd:
        b7:0a:c9:32:dd:a1:3f:cb:00:38:c6:9a:10:af:71:5e:3d:80:
        70:29:ed:db:7a:4e:ec:0c:17:c9:8a:cf:21:21:7b:c3:ea:bd:
        a2:6f:0d:93:f7:6c:f8:e6:35:c0:8b:3c:75:32:13:0a:f4:ad:
        42:e7:69:a5:42:3b:54:ab:80:84:a3:bb:3a:21:a6:e4:31:60:
        ef:1f:88:64:85:2d:07:fc:8c:32:45:8e:0b:69:74:1b:34:fe:
        c3:b3:da:9b:52:e8:06:0e:b0:29:19:d0:36:d0:b2:3b:fe:38:
        f3:45:08:27:48:23:07:14:bb:80:40:3b:81:ba:fc:fe:a5:48:
        e8:78:6e:2c:70:5b:cc:dd:48:83:51:09:bb:ed:c6:e5:7a:b3:
        2c:0e:78:5c:a9:06:e8:6f:9e:db:1e:d8:be:24:f2:09:d8:10:
        94:f4:5a:ec:29:c0:21:e1:03:f1:ca:30:b9:32:8d:1c:1a:b4:
        0e:aa:ce:4f:92:0a:9a:31:db:2e:4d:e6:8e:85:d4:b3:2b:b2:
        bd:60:ed:51:dd:c6:ce:f6:5a:76:26:37:57:2d:6b:bf:0c:05:
        71:d3:3c:a7:de:40:40:e7:b8:91:67:dd:d1:6f:e9:b6:91:55:
        fb:82:21:1d:e4:56:c8:9b:3b:78:28:ea:dc:5f:22:99:c2:86:
        53:c8:e4:80:50:7f:75:0d:26:49:9e:e3:d7:9b:d2:49:66:90:
        47:22:3e:e7:6b:2d:af:e7
-----BEGIN CERTIFICATE-----
MIIHNTCCBR2gAwIBAgIBATANBgkqhkiG9w0BAQUFADCByjELMAkGA1UEBhMCR0Ix
CzAJBgNVBAgTAlVLMQ8wDQYDVQQHEwZMb25kb24xGzAZBgNVBAoTEkZyZWVzYXQg
VUsgTGltaXRlZDERMA8GA1UEChMIZnJlZXRpbWUxGDAWBgNVBAsTD0cyIC0gUHJv
ZHVjdGlvbjEpMCcGA1UEAxMgcHJvZHVjdGlvbi5mcmVlc2F0LnR2IFNFUlZFUlMg
Q0ExKDAmBgkqhkiG9w0BCQEWGXBsYXRmb3Jtb3BzQGZyZWVzYXQuY28udWswHhcN
MTIwODA0MDY1NDI3WhcNMjcwODAxMDY1NDI3WjCBuTELMAkGA1UEBhMCR0IxCzAJ
BgNVBAgTAlVLMRswGQYDVQQKExJGcmVlc2F0IFVLIExpbWl0ZWQxETAPBgNVBAoT
CGZyZWV0aW1lMRgwFgYDVQQLEw9HMiAtIFByb2R1Y3Rpb24xKTAnBgNVBAMTIHBy
b2R1Y3Rpb24uZnJlZXNhdC50diBTRVJWRVJTIENBMSgwJgYJKoZIhvcNAQkBFhlw
bGF0Zm9ybW9wc0BmcmVlc2F0LmNvLnVrMIICIjANBgkqhkiG9w0BAQEFAAOCAg8A
MIICCgKCAgEAwvEvVPZn7HX561lMdQtNbkTI39jegbpUa5P5lS5W2B3uA2AiUUYX
J+tSxVZH2VH+VbQC5szAy3ZXuNEcW+tv7hA2iGEyNL8TZdhAyCPYfkaVBSNzJiWD
lo8QMz/wc1X0TEPffeEBlqmy3Vh5rCoLihsi5jqvz+p0XrqXSLpwrk1zJi3NOcAx
KbObCQa5b6CtSTTCHUHFo7AYwThD4VKx6PnKaUJAse3stR8Jqm6AWwA+OQUeeyFs
LgeVZhG0jBqmTUp/waZuJTevw3rmiqrAUPitYY35MrBN7ht60SkyWJyfcjCE9SBC
z3A3giMwAaaqAMRbcFXlwO2Xum9q5cERG08aWOvnjMEc6QBl0JKvXv48iQMnIur9
Il5pkOQeoaxNA1k5uFQE2hIMVDXTi2r/k73LBHsq9bL0acNtJ+sit3IjxIsjrR6i
cQi+bUnm28chkUl2lwu8JdON72tmUqrdtQZAygTT9Sd0OVFACP+N5/WVMhjDbN7B
2XexUWz+ztdoURKFsMB6LOK7rWXVLQP2RwheCfMKdOjeNaobcWDCyJnHW+qR3sF2
mCdcdMeVIyCK/Teis6TdLOUDeUcReYk1ZO9QWILm5kgi+m6NHiJd0yWpZ6YPy1jN
96pERlKtpA3H5I4KVULXiWB4MgqWSDOMY6PXq3Zlg6CzSVikD57curECAwEAAaOC
ATMwggEvMB0GA1UdDgQWBBTBDS+gsLFdqzm/SHfh5aRevCIfczCB/wYDVR0jBIH3
MIH0gBRXtOU2h18+DboCXp8JOlU/q03boKGB0KSBzTCByjELMAkGA1UEBhMCR0Ix
CzAJBgNVBAgTAlVLMQ8wDQYDVQQHEwZMb25kb24xGzAZBgNVBAoTEkZyZWVzYXQg
VUsgTGltaXRlZDERMA8GA1UEChMIZnJlZXRpbWUxGDAWBgNVBAsTD0cyIC0gUHJv
ZHVjdGlvbjEpMCcGA1UEAxMgcHJvZHVjdGlvbi5mcmVlc2F0LnR2IFNFUlZFUlMg
Q0ExKDAmBgkqhkiG9w0BCQEWGXBsYXRmb3Jtb3BzQGZyZWVzYXQuY28udWuCCQC6
fP+AQx6iIjAMBgNVHRMEBTADAQH/MA0GCSqGSIb3DQEBBQUAA4ICAQCTQRaAeA8y
3t9RwTvXfN9kApqWio9ZzALRF+At7shDdJ26+Xk6v7jKoXKP3/INB+PeeUZP1RUp
PYkNPuZ+BMlLolSbN6ZIkvx5dL2V4hf4MoxcuTu1ZGa/WBU44VzTYybq7gZM4EHw
LLyyilau1gQvHx7hNQzNh+Rmq1BDzdFospwsKAbUvKb+D6PP0YtXT/AyQq82tH4v
vH9XBjLGUyNFN+zU8oetnIddwDFHKkr7a6cng8SiNw7KL8ARt3RIW81VxskwZmGm
6l4NdPGkTgQY2OcXDBmidEKs8vU1/kEipYsahhoYjHqQo923Csky3aE/ywA4xpoQ
r3FePYBwKe3bek7sDBfJis8hIXvD6r2ibw2T92z45jXAizx1MhMK9K1C52mlQjtU
q4CEo7s6IabkMWDvH4hkhS0H/IwyRY4LaXQbNP7Ds9qbUugGDrApGdA20LI7/jjz
RQgnSCMHFLuAQDuBuvz+pUjoeG4scFvM3UiDUQm77cblerMsDnhcqQbob57bHti+
JPIJ2BCU9FrsKcAh4QPxyjC5Mo0cGrQOqs5PkgqaMdsuTeaOhdSzK7K9YO1R3cbO
9lp2JjdXLWu/DAVx0zyn3kBA57iRZ93Rb+m2kVX7giEd5FbImzt4KOrcXyKZwoZT
yOSAUH91DSZJnuPXm9JJZpBHIj7nay2v5w==
-----END CERTIFICATE-----
