Certificate:
    Data:
        Version: 3 (0x2)
        Serial Number:
            9d:f2:6e:fb:3b:67:4d:e9
        Signature Algorithm: sha1WithRSAEncryption
        Issuer: C=KR, ST=KYUNG-GI, L=SUNG-NAM, O=HUMAX Co., CN=humaxdigital.com/emailAddress=info@humaxdigital.com
        Validity
            Not Before: Apr  6 20:42:15 2012 GMT
            Not After : Apr  4 20:42:15 2022 GMT
        Subject: C=KR, ST=KYUNG-GI, L=SUNG-NAM, O=HUMAX Co., CN=hdr1000s.humaxdigital.com/emailAddress=info@humaxdigital.com
        Subject Public Key Info:
            Public Key Algorithm: rsaEncryption
                Public-Key: (1024 bit)
                Modulus:
                    00:c8:95:f7:42:2f:d9:5e:2b:cb:37:5a:7d:7d:51:
                    9b:b7:72:a6:75:d1:50:ff:b9:31:3f:12:ee:77:0c:
                    c9:82:20:96:52:4f:9e:6f:ee:c5:50:85:55:05:64:
                    84:f6:c3:8c:61:88:38:8c:91:69:dd:d4:5f:e8:c5:
                    c5:aa:8b:ef:04:f0:89:37:71:86:49:44:b8:5c:44:
                    0e:d3:1d:60:16:4c:4c:bc:13:1e:07:41:6b:db:b1:
                    1e:c1:c6:b7:2d:17:97:21:ec:0e:45:9f:02:a4:c8:
                    ee:ca:70:19:f1:b1:c6:64:21:6b:7e:c5:da:92:c8:
                    83:39:86:c7:df:f6:17:47:79
                Exponent: 65537 (0x10001)
        X509v3 extensions:
            X509v3 Basic Constraints: 
                CA:FALSE
            Netscape Cert Type: 
                SSL Client
            Netscape Comment: 
                OpenSSL Generated Certificate
            X509v3 Subject Key Identifier: 
                D3:51:82:2A:37:AB:91:64:CE:30:B5:5E:04:F2:38:A5:92:5F:15:62
            X509v3 Authority Key Identifier: 
                keyid:FA:D1:A9:71:6D:71:C4:4B:6D:C0:FC:CF:17:56:08:BC:76:D2:3A:4A
                DirName:/C=KR/ST=KYUNG-GI/L=SUNG-NAM/O=HUMAX Co./CN=humaxdigital.com/emailAddress=info@humaxdigital.com
                serial:AD:D7:D3:D8:F0:9C:E3:E4

    Signature Algorithm: sha1WithRSAEncryption
        85:91:b5:39:2a:b3:b6:e6:e0:6a:2a:3a:c7:6d:22:fc:d5:9f:
        15:79:83:e5:89:3c:c5:05:4e:35:12:b9:d3:44:74:b3:64:4a:
        fa:65:64:12:93:de:36:a5:a8:68:02:fb:1e:c2:59:d8:1f:62:
        a2:71:dd:3b:d6:cf:1b:6e:41:31:45:fb:8d:f1:fc:6a:75:ed:
        60:0a:73:64:14:18:bd:2b:15:b8:81:8f:ae:2a:66:9f:de:e7:
        ee:22:a9:1b:81:93:62:73:02:0a:2b:a4:c1:18:c6:18:ee:73:
        64:d3:ab:96:53:2d:d3:08:20:21:74:ee:4f:26:f6:50:c4:37:
        54:33
-----BEGIN CERTIFICATE-----
MIIDyjCCAzOgAwIBAgIJAJ3ybvs7Z03pMA0GCSqGSIb3DQEBBQUAMIGIMQswCQYD
VQQGEwJLUjERMA8GA1UECBMIS1lVTkctR0kxETAPBgNVBAcTCFNVTkctTkFNMRIw
EAYDVQQKEwlIVU1BWCBDby4xGTAXBgNVBAMTEGh1bWF4ZGlnaXRhbC5jb20xJDAi
BgkqhkiG9w0BCQEWFWluZm9AaHVtYXhkaWdpdGFsLmNvbTAeFw0xMjA0MDYyMDQy
MTVaFw0yMjA0MDQyMDQyMTVaMIGRMQswCQYDVQQGEwJLUjERMA8GA1UECBMIS1lV
TkctR0kxETAPBgNVBAcTCFNVTkctTkFNMRIwEAYDVQQKEwlIVU1BWCBDby4xIjAg
BgNVBAMTGWhkcjEwMDBzLmh1bWF4ZGlnaXRhbC5jb20xJDAiBgkqhkiG9w0BCQEW
FWluZm9AaHVtYXhkaWdpdGFsLmNvbTCBnzANBgkqhkiG9w0BAQEFAAOBjQAwgYkC
gYEAyJX3Qi/ZXivLN1p9fVGbt3KmddFQ/7kxPxLudwzJgiCWUk+eb+7FUIVVBWSE
9sOMYYg4jJFp3dRf6MXFqovvBPCJN3GGSUS4XEQO0x1gFkxMvBMeB0Fr27Eewca3
LReXIewORZ8CpMjuynAZ8bHGZCFrfsXaksiDOYbH3/YXR3kCAwEAAaOCAS8wggEr
MAkGA1UdEwQCMAAwEQYJYIZIAYb4QgEBBAQDAgeAMCwGCWCGSAGG+EIBDQQfFh1P
cGVuU1NMIEdlbmVyYXRlZCBDZXJ0aWZpY2F0ZTAdBgNVHQ4EFgQU01GCKjerkWTO
MLVeBPI4pZJfFWIwgb0GA1UdIwSBtTCBsoAU+tGpcW1xxEttwPzPF1YIvHbSOkqh
gY6kgYswgYgxCzAJBgNVBAYTAktSMREwDwYDVQQIEwhLWVVORy1HSTERMA8GA1UE
BxMIU1VORy1OQU0xEjAQBgNVBAoTCUhVTUFYIENvLjEZMBcGA1UEAxMQaHVtYXhk
aWdpdGFsLmNvbTEkMCIGCSqGSIb3DQEJARYVaW5mb0BodW1heGRpZ2l0YWwuY29t
ggkArdfT2PCc4+QwDQYJKoZIhvcNAQEFBQADgYEAhZG1OSqztubgaio6x20i/NWf
FXmD5Yk8xQVONRK500R0s2RK+mVkEpPeNqWoaAL7HsJZ2B9ionHdO9bPG25BMUX7
jfH8anXtYApzZBQYvSsVuIGPripmn97n7iKpG4GTYnMCCiukwRjGGO5zZNOrllMt
0wggIXTuTyb2UMQ3VDM=
-----END CERTIFICATE-----
