Certificate:
    Data:
        Version: 3 (0x2)
        Serial Number:
            ea:3d:7b:64:da:a0:76:4f
        Signature Algorithm: sha1WithRSAEncryption
        Issuer: C=DE, ST=Bayern, O=ASTRA Platform Services GmbH, OU=IT Services, CN=ASTRA Platform Services HbbTV SSL Test CA
        Validity
            Not Before: May 10 12:25:32 2011 GMT
            Not After : Apr 16 12:25:32 2110 GMT
        Subject: C=DE, ST=Bayern, O=ASTRA Platform Services GmbH, OU=IT Services, CN=ASTRA Platform Services HbbTV SSL Test CA
        Subject Public Key Info:
            Public Key Algorithm: rsaEncryption
                Public-Key: (2048 bit)
                Modulus:
                    00:d5:4d:e2:81:f9:27:f9:28:c7:2b:fa:c2:c0:8d:
                    19:06:ea:73:b7:8d:a4:dd:d5:45:8b:b5:bb:58:dd:
                    68:0b:c0:08:51:db:99:e7:2f:3d:30:7c:c6:6c:55:
                    14:70:ac:0b:37:e5:b8:df:62:c0:03:0a:cc:a6:a2:
                    88:7b:10:16:66:d8:b4:df:9c:48:2d:f7:15:c0:83:
                    92:fc:af:1b:ac:01:f4:ff:32:46:99:d5:78:7a:9e:
                    a6:c6:a1:5c:b2:62:47:a9:37:32:f6:84:d1:92:85:
                    68:1c:8f:fb:5e:3e:b1:0c:f4:30:16:9a:27:d9:7f:
                    8a:15:15:62:65:34:7e:df:9f:87:a5:d0:1f:0a:4a:
                    a1:ca:70:23:f7:27:57:21:c9:1d:99:23:9c:9e:ad:
                    f6:03:64:28:3b:50:e8:49:90:22:ad:17:88:6c:ab:
                    cf:a8:86:00:53:9d:fb:30:59:a4:0a:d5:1e:9f:c8:
                    9b:86:73:d1:09:ae:16:40:91:fa:21:bf:f8:04:72:
                    07:a7:f7:6f:ed:5e:b7:ff:cc:3e:74:40:e3:26:1b:
                    80:0f:4e:5f:66:77:55:13:0b:a7:5e:0f:3a:2a:44:
                    68:99:84:78:15:bd:c1:62:07:7c:0d:a3:15:67:10:
                    9d:1f:b9:8e:32:4e:96:bb:68:e8:ac:f2:59:c7:b0:
                    f1:cd
                Exponent: 65537 (0x10001)
        X509v3 extensions:
            X509v3 Subject Key Identifier: 
                C7:F3:5F:EF:AD:28:7A:29:DF:B6:65:EE:6B:08:5B:E6:DC:E9:C7:55
            X509v3 Authority Key Identifier: 
                keyid:C7:F3:5F:EF:AD:28:7A:29:DF:B6:65:EE:6B:08:5B:E6:DC:E9:C7:55

            X509v3 Basic Constraints: 
                CA:TRUE
    Signature Algorithm: sha1WithRSAEncryption
        0b:0c:d9:30:60:d9:0a:d5:22:76:b8:82:db:71:d6:87:f7:ea:
        e8:0a:ab:a2:13:fb:bb:16:4e:60:2e:c0:68:19:8c:92:a0:11:
        64:51:23:6d:80:af:92:91:18:fa:13:ae:ac:c1:73:8f:dc:bc:
        7a:a1:72:5a:2f:50:a2:ce:10:d7:de:d2:8a:f9:92:b5:1a:45:
        99:e2:5e:5b:8e:2f:19:a9:a6:dd:a8:b4:d6:97:75:8c:27:91:
        c2:cd:3f:6c:6f:4d:87:16:37:eb:27:a4:2e:ae:8c:6b:79:0c:
        0e:de:6f:0c:9c:74:64:6d:b5:36:f2:bc:64:fe:40:9e:3c:72:
        79:40:18:89:34:f0:36:b6:c7:2d:58:cc:4d:db:1f:0e:41:23:
        a0:39:c6:45:aa:c9:a5:a3:85:40:34:7a:4c:3f:e3:c6:9e:67:
        c1:25:9a:a9:3e:2f:81:53:f3:70:87:11:4c:a3:f6:45:d9:c5:
        93:d6:c0:37:21:ec:f0:68:a3:25:3e:57:02:a1:bd:70:b4:47:
        d1:dc:4c:a5:8a:70:bb:93:a6:11:61:01:24:ad:a5:2a:9c:3b:
        42:29:69:21:79:4c:6b:94:3a:af:92:01:b4:61:a0:57:38:84:
        ec:11:48:5a:e8:db:4e:b0:2a:1a:29:73:40:9c:38:58:ae:d1:
        73:24:da:72
-----BEGIN CERTIFICATE-----
MIID9TCCAt2gAwIBAgIJAOo9e2TaoHZPMA0GCSqGSIb3DQEBBQUAMIGPMQswCQYD
VQQGEwJERTEPMA0GA1UECAwGQmF5ZXJuMSUwIwYDVQQKDBxBU1RSQSBQbGF0Zm9y
bSBTZXJ2aWNlcyBHbWJIMRQwEgYDVQQLDAtJVCBTZXJ2aWNlczEyMDAGA1UEAwwp
QVNUUkEgUGxhdGZvcm0gU2VydmljZXMgSGJiVFYgU1NMIFRlc3QgQ0EwIBcNMTEw
NTEwMTIyNTMyWhgPMjExMDA0MTYxMjI1MzJaMIGPMQswCQYDVQQGEwJERTEPMA0G
A1UECAwGQmF5ZXJuMSUwIwYDVQQKDBxBU1RSQSBQbGF0Zm9ybSBTZXJ2aWNlcyBH
bWJIMRQwEgYDVQQLDAtJVCBTZXJ2aWNlczEyMDAGA1UEAwwpQVNUUkEgUGxhdGZv
cm0gU2VydmljZXMgSGJiVFYgU1NMIFRlc3QgQ0EwggEiMA0GCSqGSIb3DQEBAQUA
A4IBDwAwggEKAoIBAQDVTeKB+Sf5KMcr+sLAjRkG6nO3jaTd1UWLtbtY3WgLwAhR
25nnLz0wfMZsVRRwrAs35bjfYsADCsymooh7EBZm2LTfnEgt9xXAg5L8rxusAfT/
MkaZ1Xh6nqbGoVyyYkepNzL2hNGShWgcj/tePrEM9DAWmifZf4oVFWJlNH7fn4el
0B8KSqHKcCP3J1chyR2ZI5yerfYDZCg7UOhJkCKtF4hsq8+ohgBTnfswWaQK1R6f
yJuGc9EJrhZAkfohv/gEcgen92/tXrf/zD50QOMmG4APTl9md1UTC6deDzoqRGiZ
hHgVvcFiB3wNoxVnEJ0fuY4yTpa7aOis8lnHsPHNAgMBAAGjUDBOMB0GA1UdDgQW
BBTH81/vrSh6Kd+2Ze5rCFvm3OnHVTAfBgNVHSMEGDAWgBTH81/vrSh6Kd+2Ze5r
CFvm3OnHVTAMBgNVHRMEBTADAQH/MA0GCSqGSIb3DQEBBQUAA4IBAQALDNkwYNkK
1SJ2uILbcdaH9+roCquiE/u7Fk5gLsBoGYySoBFkUSNtgK+SkRj6E66swXOP3Lx6
oXJaL1CizhDX3tKK+ZK1GkWZ4l5bji8ZqabdqLTWl3WMJ5HCzT9sb02HFjfrJ6Qu
roxreQwO3m8MnHRkbbU28rxk/kCePHJ5QBiJNPA2tsctWMxN2x8OQSOgOcZFqsml
o4VANHpMP+PGnmfBJZqpPi+BU/NwhxFMo/ZF2cWT1sA3IezwaKMlPlcCob1wtEfR
3EylinC7k6YRYQEkraUqnDtCKWkheUxrlDqvkgG0YaBXOITsEUha6NtOsCoaKXNA
nDhYrtFzJNpy
-----END CERTIFICATE-----
