Certificate:
    Data:
        Version: 3 (0x2)
        Serial Number:
            ea:3d:7b:64:da:a0:76:67
        Signature Algorithm: sha1WithRSAEncryption
        Issuer: C=DE, ST=Bayern, O=ASTRA Platform Services GmbH, OU=IT Services, CN=ASTRA Platform Services HbbTV SSL Test CA
        Validity
            Not Before: Aug 13 09:09:21 2014 GMT
            Not After : Jul 20 09:09:21 2113 GMT
        Subject: C=DE, ST=Unterfoehring, O=HUMAX DIGITAL GmbH, OU=02.001, CN=OPALtestserver.aps.de/description=OPALRC_v1
        Subject Public Key Info:
            Public Key Algorithm: rsaEncryption
                Public-Key: (2048 bit)
                Modulus:
                    00:ca:ea:a8:47:e0:92:a0:54:9f:72:6c:50:21:9a:
                    87:64:e7:b3:15:0f:94:72:0c:28:5a:82:4d:e5:ba:
                    9b:23:18:4e:35:15:ad:9a:92:4f:57:32:a2:d4:e1:
                    dc:a6:d7:33:69:61:dc:c0:18:96:fb:e9:48:6e:fc:
                    e9:dc:7a:6b:53:1b:3f:9c:d7:5d:2f:31:9a:71:79:
                    93:62:49:13:74:74:f0:c2:f7:29:0c:8b:1d:b8:9e:
                    1c:48:f5:7a:6d:97:bd:55:10:41:9c:5c:9b:56:2d:
                    9a:61:ab:ef:94:da:43:93:5c:88:82:d9:92:f7:f4:
                    15:5d:f4:79:8b:08:e1:52:a3:34:94:7e:88:b7:5a:
                    6e:8e:4b:35:c1:69:02:c4:63:78:2c:52:1e:2b:74:
                    9c:44:fe:83:af:e0:8b:94:33:a8:27:08:08:d9:ef:
                    2e:e6:69:79:88:6d:c6:ae:17:05:79:43:85:46:4b:
                    b9:61:a6:4d:27:04:17:24:03:21:8a:5c:d5:9c:3d:
                    46:b7:31:13:83:21:85:93:ba:ae:78:e7:d9:73:e5:
                    9b:00:84:0b:17:5a:4c:ff:23:d8:1c:ba:85:c8:c0:
                    1f:6a:b2:4d:69:a4:11:96:20:ad:6b:17:2c:e0:c7:
                    14:b0:b8:15:18:cc:f1:44:a0:52:0d:9a:34:5f:39:
                    33:2d
                Exponent: 65537 (0x10001)
        X509v3 extensions:
            X509v3 Basic Constraints: 
                CA:FALSE
            Netscape Comment: 
                OpenSSL Generated Certificate
            X509v3 Subject Key Identifier: 
                99:E5:AD:F4:EC:03:E5:79:6C:0C:B4:93:84:56:2D:3E:1D:03:6F:30
            X509v3 Authority Key Identifier: 
                keyid:C7:F3:5F:EF:AD:28:7A:29:DF:B6:65:EE:6B:08:5B:E6:DC:E9:C7:55

    Signature Algorithm: sha1WithRSAEncryption
        73:6b:0f:52:3a:fe:da:09:7b:43:ed:7c:4c:b5:80:db:e9:a1:
        70:59:aa:33:5f:07:9a:b0:95:60:b6:b8:c3:93:fd:9b:f7:81:
        da:7a:e1:0a:bd:79:bd:41:66:4b:a1:72:0e:dc:21:33:ee:7a:
        46:47:9c:56:a7:62:5c:b0:3a:d2:ab:70:84:6f:61:76:8d:cd:
        f3:0e:3c:92:f0:a9:14:29:86:29:9d:d2:26:ae:a9:3d:aa:0f:
        a7:0b:bf:55:6f:10:4a:7d:6e:f0:7e:74:a1:84:d3:ff:5c:d5:
        19:37:0f:a4:0b:66:5c:43:c9:86:9e:b5:ba:58:62:0b:d4:4d:
        ff:5c:66:f7:c4:4a:ad:d3:8f:33:12:32:e2:2c:aa:64:84:a1:
        fb:5e:30:5b:7f:6f:f6:f7:d7:6c:ad:92:fd:25:03:c4:ac:62:
        3c:98:0b:d2:ee:6b:f9:cd:e3:de:8e:d3:b9:bc:6a:b2:36:0e:
        67:ea:76:18:8d:20:ff:be:52:0f:d2:5c:52:e7:e0:d2:72:b9:
        11:f9:a8:73:8f:38:7c:a7:3f:ba:19:ee:0a:57:56:43:33:9a:
        9e:0b:65:b5:70:ed:10:b3:53:61:bb:8e:95:e4:1b:6a:7d:1d:
        98:e8:85:90:75:e2:f5:b4:0f:0f:c0:c9:7d:42:39:a9:b8:3d:
        ba:1d:c8:ca
-----BEGIN CERTIFICATE-----
MIIEGDCCAwCgAwIBAgIJAOo9e2TaoHZnMA0GCSqGSIb3DQEBBQUAMIGPMQswCQYD
VQQGEwJERTEPMA0GA1UECAwGQmF5ZXJuMSUwIwYDVQQKDBxBU1RSQSBQbGF0Zm9y
bSBTZXJ2aWNlcyBHbWJIMRQwEgYDVQQLDAtJVCBTZXJ2aWNlczEyMDAGA1UEAwwp
QVNUUkEgUGxhdGZvcm0gU2VydmljZXMgSGJiVFYgU1NMIFRlc3QgQ0EwIBcNMTQw
ODEzMDkwOTIxWhgPMjExMzA3MjAwOTA5MjFaMIGHMQswCQYDVQQGEwJERTEWMBQG
A1UECBMNVW50ZXJmb2VocmluZzEbMBkGA1UEChMSSFVNQVggRElHSVRBTCBHbWJI
MQ8wDQYDVQQLEwYwMi4wMDExHjAcBgNVBAMTFU9QQUx0ZXN0c2VydmVyLmFwcy5k
ZTESMBAGA1UEDRQJT1BBTFJDX3YxMIIBIjANBgkqhkiG9w0BAQEFAAOCAQ8AMIIB
CgKCAQEAyuqoR+CSoFSfcmxQIZqHZOezFQ+UcgwoWoJN5bqbIxhONRWtmpJPVzKi
1OHcptczaWHcwBiW++lIbvzp3HprUxs/nNddLzGacXmTYkkTdHTwwvcpDIsduJ4c
SPV6bZe9VRBBnFybVi2aYavvlNpDk1yIgtmS9/QVXfR5iwjhUqM0lH6It1pujks1
wWkCxGN4LFIeK3ScRP6Dr+CLlDOoJwgI2e8u5ml5iG3GrhcFeUOFRku5YaZNJwQX
JAMhilzVnD1GtzETgyGFk7queOfZc+WbAIQLF1pM/yPYHLqFyMAfarJNaaQRliCt
axcs4McUsLgVGMzxRKBSDZo0XzkzLQIDAQABo3sweTAJBgNVHRMEAjAAMCwGCWCG
SAGG+EIBDQQfFh1PcGVuU1NMIEdlbmVyYXRlZCBDZXJ0aWZpY2F0ZTAdBgNVHQ4E
FgQUmeWt9OwD5XlsDLSThFYtPh0DbzAwHwYDVR0jBBgwFoAUx/Nf760oeinftmXu
awhb5tzpx1UwDQYJKoZIhvcNAQEFBQADggEBAHNrD1I6/toJe0PtfEy1gNvpoXBZ
qjNfB5qwlWC2uMOT/Zv3gdp64Qq9eb1BZkuhcg7cITPuekZHnFanYlywOtKrcIRv
YXaNzfMOPJLwqRQphimd0iauqT2qD6cLv1VvEEp9bvB+dKGE0/9c1Rk3D6QLZlxD
yYaetbpYYgvUTf9cZvfESq3TjzMSMuIsqmSEofteMFt/b/b312ytkv0lA8SsYjyY
C9Lua/nN496O07m8arI2DmfqdhiNIP++Ug/SXFLn4NJyuRH5qHOPOHynP7oZ7gpX
VkMzmp4LZbVw7RCzU2G7jpXkG2p9HZjohZB14vW0Dw/AyX1COam4PbodyMo=
-----END CERTIFICATE-----
-----BEGIN PRIVATE KEY-----
MIIEvQIBADANBgkqhkiG9w0BAQEFAASCBKcwggSjAgEAAoIBAQDK6qhH4JKgVJ9y
bFAhmodk57MVD5RyDChagk3lupsjGE41Fa2akk9XMqLU4dym1zNpYdzAGJb76Uhu
/OncemtTGz+c110vMZpxeZNiSRN0dPDC9ykMix24nhxI9Xptl71VEEGcXJtWLZph
q++U2kOTXIiC2ZL39BVd9HmLCOFSozSUfoi3Wm6OSzXBaQLEY3gsUh4rdJxE/oOv
4IuUM6gnCAjZ7y7maXmIbcauFwV5Q4VGS7lhpk0nBBckAyGKXNWcPUa3MRODIYWT
uq5459lz5ZsAhAsXWkz/I9gcuoXIwB9qsk1ppBGWIK1rFyzgxxSwuBUYzPFEoFIN
mjRfOTMtAgMBAAECggEAXh8whX6epK3787hYBu5FxUFQKQG8CpanFSyB84B2O3Yn
uKngh+U71iePrg1CK0WA/G2/Vn9RcXII/ipkU7eZFsh53kdrWtu4VtBc0+cvlgI0
N0ssCDxzQdJdLl5nNnR/BvjuZhfymau3g3ycOcBwPedbDs7bRBY83wLqadppoclr
kJ3rrZHKwqh00ciFtariWNCkyVG7MA0a+MVBBrBZ7niqc2SIbGrNOsgszFrJFz6w
y8w2tPr2Qdfl1xlM6jFMX4yHxEfo7Qf0ePGnlSyxNMqbM0PXnoluKcbl4nA1DrKz
nP8sU7FXDhd1j1E4xa4b8luS84FElRa0JQGTzTLz4QKBgQD9pT1dFLTRNt11Dxhl
p9IHQ+tCYx6O+SJpWPi4cSTUxX31ekAmePYOBsLHH+LJF5YPjIJiC7eVccBgNSTj
mdAqfy3RgfRUTrl46FLRiajNpwt9Rv9ylw1lcfUJF5eVaVzMCvLHRvASrq0iVMXc
MN2KXVok4JY6Ax06Q6BiGfulCQKBgQDMzN2+6W7Dgvk9VrAdqV4lh/GnYH8tbO+w
0j4RvdjhwfmzeJ6SHeA1rCZxD+eKAC1hKB9nJBBtGurFavSKoOg8uDc8z9jikP3V
33CmhHHU+SiAfbnlMOdYhZpnBbEHIuH8/70FJa27fNu1rPxIxZ1yxpMkR5KIadkM
JzPLoL+qBQKBgGoPilU9r048buXf5ge74OsAz4L3B3QpYOZEOdyGEyyVWFIpSGHN
+rVqxk+VWbNUlX7y9iIhXCa1ZgfUsRQq4QykGXidqpkGQi/4lYjg0yELVJaR9Ybo
+sUMnbWrk8r6P79iZJpHY2OsfuD4KbQlCr4swuDguHCRlMskNBBRZRRhAoGATve3
kQOFWBHKdOJWKjnCOYp/nWBR6XwVuAJ5OHIRjIs08wTRb9nhOBDXCcVuLAIBfXLx
GN4JD2jPmaux+zosEi2d7u7d3A64MZ1kXHC5S7t+6HySD1OaAMITVSIWrn++z8T0
Z2Wt5ZsxRI4dARphqX30AosubzcRH+SFzkB/ZtkCgYEAyueo7IDL6sd6ossZyTh4
Vtjz+0RwkYzGV2db5MOvIJ+KBkkW5o8O/C+gK2w3NEHxPMFyM5GetcTQ8EJxWdph
2NAPEfI9knAUaBRPpObsn9bx63d9eZUFVrw9IWTjVq3fvvsFyvxfJxNaZE17d3bR
tjdpLCNsyB1LwmVi5AjXFG0=
-----END PRIVATE KEY-----
