Certificate:
    Data:
        Version: 3 (0x2)
        Serial Number:
            90:52:32:ec:3f:73:e0:0b
    Signature Algorithm: sha256WithRSAEncryption
        Issuer: O=HUMAX Co., CN=humaxdigital.com/Freeview
        Validity
            Not Before: Mar 22 05:13:11 2015 GMT
            Not After : Apr 21 05:13:11 2045 GMT
        Subject: O=Humax, CN=hdr4000t
        Subject Public Key Info:
            Public Key Algorithm: rsaEncryption
                Public-Key: (2048 bit)
                Modulus:
                    00:df:55:21:6b:71:15:b3:33:68:9e:7d:74:bd:60:
                    13:f7:1d:ed:7e:03:61:c0:6e:45:90:3d:e7:1e:c6:
                    33:12:54:66:08:3e:3b:92:c9:38:25:fe:3b:a7:4c:
                    bd:9e:a0:90:71:77:6f:0a:94:2b:25:25:a6:f9:5d:
                    9c:6d:e4:6c:83:c5:25:24:d2:68:5a:ce:72:36:0a:
                    54:a3:a7:8f:4e:83:5b:8f:c7:57:5f:76:d8:46:56:
                    c6:80:8f:29:31:3b:6b:06:6a:91:2e:6f:5a:00:8c:
                    fb:ea:d3:ae:d2:e2:54:62:f6:d9:b0:19:65:55:95:
                    bb:b6:f5:d9:9d:89:9e:25:0f:fb:be:e1:a0:8a:e1:
                    ab:32:91:db:25:26:34:bf:98:5f:ce:61:f4:0d:a0:
                    5a:20:9c:b7:7b:7d:f1:2e:a7:50:dd:37:97:77:6c:
                    38:1a:0b:72:ff:3c:ea:5f:36:1d:c6:8c:1b:75:84:
                    b7:3a:5e:46:27:d3:69:24:0e:4e:99:7d:51:3d:a7:
                    ad:d8:f3:5f:40:58:16:61:2c:55:13:da:c2:74:81:
                    4d:d9:31:48:bf:58:ef:d1:07:40:d2:a3:7f:0d:88:
                    b1:c3:ef:ec:83:fd:6c:a0:57:11:44:0c:e2:c3:93:
                    85:1d:8e:c2:b0:fa:44:c3:4b:ba:99:12:7b:a0:95:
                    c2:cd
                Exponent: 65537 (0x10001)
        X509v3 extensions:
            X509v3 Basic Constraints: critical
                CA:FALSE
            X509v3 Extended Key Usage: critical
                TLS Web Client Authentication
            X509v3 CRL Distribution Points: 

                Full Name:
                  URI:http://az341951.vo.msecnd.net/cert/9010.7D31/humaxfvccert.crl

    Signature Algorithm: sha256WithRSAEncryption
         44:60:ba:06:b0:e7:ab:0d:7a:11:cb:b3:f0:f6:64:04:d5:08:
         ac:7d:71:8c:cb:04:ef:cc:52:05:a5:2b:a8:7b:c5:a4:95:bf:
         3e:dd:80:9f:19:41:43:81:cc:51:e7:b5:55:8c:70:56:09:9a:
         00:27:5f:00:4d:cd:6f:d4:58:11:2a:f7:ed:35:8c:54:45:af:
         83:bd:29:0d:f7:d6:0f:4f:8b:16:53:62:56:b3:17:00:d7:93:
         e9:34:d5:94:24:4d:48:f7:8d:9c:c7:13:c0:9d:51:68:8d:d8:
         d9:bc:e1:2c:89:92:06:a1:c7:2a:de:6a:6c:8c:17:e9:d8:cb:
         ae:83:1a:e0:9e:e4:41:8f:c4:f0:c7:6d:04:ea:99:c8:37:5b:
         32:61:e3:7d:61:4a:d5:58:c7:6b:fb:7b:06:0a:14:b7:33:7a:
         2c:7c:c6:65:0b:3c:3d:08:1b:a1:3a:69:0f:14:76:e9:4b:74:
         62:10:47:32:a9:32:b0:db:ca:09:d0:59:9a:c9:5a:61:b0:98:
         49:0a:c9:82:33:60:49:50:a4:e9:14:8b:3d:ab:80:ba:df:43:
         fc:5c:2b:f4:bb:5f:85:e9:4c:d3:73:74:98:50:7e:a2:b4:f8:
         40:37:80:2f:65:62:cf:5b:53:a0:82:2b:91:1f:bf:c7:83:26:
         bf:73:ec:89
-----BEGIN CERTIFICATE-----
MIIDVjCCAj6gAwIBAgIJAJBSMuw/c+ALMA0GCSqGSIb3DQEBCwUAMDgxEjAQBgNV
BAoTCUhVTUFYIENvLjEiMCAGA1UEAxMZaHVtYXhkaWdpdGFsLmNvbS9GcmVldmll
dzAeFw0xNTAzMjIwNTEzMTFaFw00NTA0MjEwNTEzMTFaMCMxDjAMBgNVBAoTBUh1
bWF4MREwDwYDVQQDEwhoZHI0MDAwdDCCASIwDQYJKoZIhvcNAQEBBQADggEPADCC
AQoCggEBAN9VIWtxFbMzaJ59dL1gE/cd7X4DYcBuRZA95x7GMxJUZgg+O5LJOCX+
O6dMvZ6gkHF3bwqUKyUlpvldnG3kbIPFJSTSaFrOcjYKVKOnj06DW4/HV1922EZW
xoCPKTE7awZqkS5vWgCM++rTrtLiVGL22bAZZVWVu7b12Z2JniUP+77hoIrhqzKR
2yUmNL+YX85h9A2gWiCct3t98S6nUN03l3dsOBoLcv886l82HcaMG3WEtzpeRifT
aSQOTpl9UT2nrdjzX0BYFmEsVRPawnSBTdkxSL9Y79EHQNKjfw2IscPv7IP9bKBX
EUQM4sOThR2OwrD6RMNLupkSe6CVws0CAwEAAaN4MHYwDAYDVR0TAQH/BAIwADAW
BgNVHSUBAf8EDDAKBggrBgEFBQcDAjBOBgNVHR8ERzBFMEOgQaA/hj1odHRwOi8v
YXozNDE5NTEudm8ubXNlY25kLm5ldC9jZXJ0LzkwMTAuN0QzMS9odW1heGZ2Y2Nl
cnQuY3JsMA0GCSqGSIb3DQEBCwUAA4IBAQBEYLoGsOerDXoRy7Pw9mQE1QisfXGM
ywTvzFIFpSuoe8Wklb8+3YCfGUFDgcxR57VVjHBWCZoAJ18ATc1v1FgRKvftNYxU
Ra+DvSkN99YPT4sWU2JWsxcA15PpNNWUJE1I942cxxPAnVFojdjZvOEsiZIGoccq
3mpsjBfp2MuugxrgnuRBj8Twx20E6pnIN1syYeN9YUrVWMdr+3sGChS3M3osfMZl
Czw9CBuhOmkPFHbpS3RiEEcyqTKw28oJ0FmayVphsJhJCsmCM2BJUKTpFIs9q4C6
30P8XCv0u1+F6UzTc3SYUH6itPhAN4AvZWLPW1OggiuRH7/Hgya/c+yJ
-----END CERTIFICATE-----
